target datalayout = "e-m:e-p270:32:32-p271:32:32-p272:64:64-i64:64-i128:128-f80:128-n8:16:32:64-S128"
target triple = "x86_64-pc-linux-gnu"

%struct._generic_SUNNonlinearSolver_Ops = type { ptr, ptr, ptr, ptr, ptr, ptr, ptr, ptr, ptr, ptr, ptr, ptr, ptr }
%struct._generic_SUNNonlinearSolver = type { ptr, ptr, ptr }

; Function Attrs: nounwind uwtable
define ptr @SUNNonlinSolNewEmpty(ptr noundef %0) #0 {
  %2 = alloca ptr, align 8
  %3 = alloca ptr, align 8
  %4 = alloca ptr, align 8
  %5 = alloca ptr, align 8
  %6 = alloca ptr, align 8
  store ptr %0, ptr %3, align 8, !tbaa !3
  %7 = load ptr, ptr %3, align 8, !tbaa !3
  %8 = icmp eq ptr %7, null
  br i1 %8, label %9, label %10

9:                                                ; preds = %1
  store ptr null, ptr %2, align 8
  br label %49

10:                                               ; preds = %1
  call void @llvm.lifetime.start.p0(i64 8, ptr %4) #4
  %11 = load ptr, ptr %3, align 8, !tbaa !3
  store ptr %11, ptr %4, align 8, !tbaa !3
  call void @llvm.lifetime.start.p0(i64 8, ptr %5) #4
  call void @llvm.lifetime.start.p0(i64 8, ptr %6) #4
  store ptr null, ptr %5, align 8, !tbaa !8
  %12 = call noalias ptr @malloc(i64 noundef 24) #5
  store ptr %12, ptr %5, align 8, !tbaa !8
  store ptr null, ptr %6, align 8, !tbaa !10
  %13 = call noalias ptr @malloc(i64 noundef 104) #5
  store ptr %13, ptr %6, align 8, !tbaa !10
  %14 = load ptr, ptr %6, align 8, !tbaa !10
  %15 = getelementptr inbounds nuw %struct._generic_SUNNonlinearSolver_Ops, ptr %14, i32 0, i32 0
  store ptr null, ptr %15, align 8, !tbaa !12
  %16 = load ptr, ptr %6, align 8, !tbaa !10
  %17 = getelementptr inbounds nuw %struct._generic_SUNNonlinearSolver_Ops, ptr %16, i32 0, i32 1
  store ptr null, ptr %17, align 8, !tbaa !14
  %18 = load ptr, ptr %6, align 8, !tbaa !10
  %19 = getelementptr inbounds nuw %struct._generic_SUNNonlinearSolver_Ops, ptr %18, i32 0, i32 2
  store ptr null, ptr %19, align 8, !tbaa !15
  %20 = load ptr, ptr %6, align 8, !tbaa !10
  %21 = getelementptr inbounds nuw %struct._generic_SUNNonlinearSolver_Ops, ptr %20, i32 0, i32 3
  store ptr null, ptr %21, align 8, !tbaa !16
  %22 = load ptr, ptr %6, align 8, !tbaa !10
  %23 = getelementptr inbounds nuw %struct._generic_SUNNonlinearSolver_Ops, ptr %22, i32 0, i32 4
  store ptr null, ptr %23, align 8, !tbaa !17
  %24 = load ptr, ptr %6, align 8, !tbaa !10
  %25 = getelementptr inbounds nuw %struct._generic_SUNNonlinearSolver_Ops, ptr %24, i32 0, i32 5
  store ptr null, ptr %25, align 8, !tbaa !18
  %26 = load ptr, ptr %6, align 8, !tbaa !10
  %27 = getelementptr inbounds nuw %struct._generic_SUNNonlinearSolver_Ops, ptr %26, i32 0, i32 6
  store ptr null, ptr %27, align 8, !tbaa !19
  %28 = load ptr, ptr %6, align 8, !tbaa !10
  %29 = getelementptr inbounds nuw %struct._generic_SUNNonlinearSolver_Ops, ptr %28, i32 0, i32 7
  store ptr null, ptr %29, align 8, !tbaa !20
  %30 = load ptr, ptr %6, align 8, !tbaa !10
  %31 = getelementptr inbounds nuw %struct._generic_SUNNonlinearSolver_Ops, ptr %30, i32 0, i32 8
  store ptr null, ptr %31, align 8, !tbaa !21
  %32 = load ptr, ptr %6, align 8, !tbaa !10
  %33 = getelementptr inbounds nuw %struct._generic_SUNNonlinearSolver_Ops, ptr %32, i32 0, i32 9
  store ptr null, ptr %33, align 8, !tbaa !22
  %34 = load ptr, ptr %6, align 8, !tbaa !10
  %35 = getelementptr inbounds nuw %struct._generic_SUNNonlinearSolver_Ops, ptr %34, i32 0, i32 10
  store ptr null, ptr %35, align 8, !tbaa !23
  %36 = load ptr, ptr %6, align 8, !tbaa !10
  %37 = getelementptr inbounds nuw %struct._generic_SUNNonlinearSolver_Ops, ptr %36, i32 0, i32 11
  store ptr null, ptr %37, align 8, !tbaa !24
  %38 = load ptr, ptr %6, align 8, !tbaa !10
  %39 = getelementptr inbounds nuw %struct._generic_SUNNonlinearSolver_Ops, ptr %38, i32 0, i32 12
  store ptr null, ptr %39, align 8, !tbaa !25
  %40 = load ptr, ptr %3, align 8, !tbaa !3
  %41 = load ptr, ptr %5, align 8, !tbaa !8
  %42 = getelementptr inbounds nuw %struct._generic_SUNNonlinearSolver, ptr %41, i32 0, i32 2
  store ptr %40, ptr %42, align 8, !tbaa !26
  %43 = load ptr, ptr %6, align 8, !tbaa !10
  %44 = load ptr, ptr %5, align 8, !tbaa !8
  %45 = getelementptr inbounds nuw %struct._generic_SUNNonlinearSolver, ptr %44, i32 0, i32 1
  store ptr %43, ptr %45, align 8, !tbaa !28
  %46 = load ptr, ptr %5, align 8, !tbaa !8
  %47 = getelementptr inbounds nuw %struct._generic_SUNNonlinearSolver, ptr %46, i32 0, i32 0
  store ptr null, ptr %47, align 8, !tbaa !29
  %48 = load ptr, ptr %5, align 8, !tbaa !8
  store ptr %48, ptr %2, align 8
  call void @llvm.lifetime.end.p0(i64 8, ptr %6) #4
  call void @llvm.lifetime.end.p0(i64 8, ptr %5) #4
  call void @llvm.lifetime.end.p0(i64 8, ptr %4) #4
  br label %49

49:                                               ; preds = %10, %9
  %50 = load ptr, ptr %2, align 8
  ret ptr %50
}